; Function Attrs: nofree nounwind uwtable
define dso_local range(i32 -1, 1) i32 @dirCreateIfMissing(ptr noundef readonly captures(none) %0) local_unnamed_addr #6 {
  %2 = alloca %struct.stat, align 8
  %3 = tail call i32 @mkdir(ptr noundef %0, i32 noundef 493) #29
  %.not = icmp eq i32 %3, 0
  br i1 %.not, label %15, label %4

4:                                                ; preds = %1
  %5 = tail call ptr @__errno_location() #30
  %6 = load i32, ptr %5, align 4, !tbaa !5
  %.not2 = icmp eq i32 %6, 17
  br i1 %.not2, label %7, label %15

7:                                                ; preds = %4
  call void @llvm.lifetime.start.p0(i64 144, ptr nonnull %2) #29
  %8 = call i32 @stat64(ptr noundef readonly %0, ptr noundef nonnull %2) #29
  %9 = icmp ne i32 %8, 0
  %10 = getelementptr inbounds nuw i8, ptr %2, i64 24
  %11 = load i32, ptr %10, align 8
  %12 = and i32 %11, 61440
  %13 = icmp ne i32 %12, 16384
  %.not6 = select i1 %9, i1 true, i1 %13
  call void @llvm.lifetime.end.p0(i64 144, ptr nonnull %2) #29
  br i1 %.not6, label %14, label %15

14:                                               ; preds = %7
  store i32 20, ptr %5, align 4, !tbaa !5
  br label %15

15:                                               ; preds = %1, %7, %4, %14
  %.0 = phi i32 [ -1, %14 ], [ -1, %4 ], [ 0, %7 ], [ 0, %1 ]
  ret i32 %.0
}